target datalayout = "e-m:e-p270:32:32-p271:32:32-p272:64:64-i64:64-i128:128-f80:128-n8:16:32:64-S128"
target triple = "x86_64-pc-linux-gnu"

%struct.reassembly_table = type { ptr, ptr, ptr, ptr, ptr }
%struct._packet_info = type { ptr, ptr, i32, i32, %struct.nstime_t, %struct.nstime_t, %struct.nstime_t, i8, ptr, ptr, ptr, ptr, %struct._address, %struct._address, %struct._address, %struct._address, %struct._address, %struct._address, i32, ptr, i8, [3 x i8], %struct.anon, i32, i32, i32, i32, ptr, i8, ptr, ptr, i16, i16, i32, i32, i16, i32, i32, ptr, ptr, ptr, i8, i8, i16, i16, i16, i32, i16, i16, ptr, ptr, ptr, ptr, ptr, i32, i32 }
%struct.nstime_t = type { i64, i32 }
%struct._address = type { i32, i32, ptr, ptr }
%struct.anon = type { i8, [3 x i8] }

@hf_capwap_message_element = internal global i32 0, align 4
@ett_capwap_control = internal global i32 0, align 4
@ett_capwap_message_element = internal global i32 0, align 4
@proto_capwap_control = internal global i32 0, align 4
@capwap_reassembly_table = internal global %struct.reassembly_table zeroinitializer, align 8
@global_capwap_reassemble = internal global i8 1, align 1
@dtls_handle = internal global ptr null, align 8
@.str.1082 = private unnamed_addr constant [15 x i8] c"CAPWAP-Control\00", align 1
@.str.1083 = private unnamed_addr constant [19 x i8] c"Reassembled CAPWAP\00", align 1
@.str.1084 = private unnamed_addr constant [40 x i8] c" (Fragment ID: %u, Fragment Offset: %u)\00", align 1
@.str.1085 = private unnamed_addr constant [32 x i8] c" (Reassembled, Fragment ID: %u)\00", align 1

; Function Attrs: null_pointer_is_valid sspstrong uwtable
define internal i32 @dissect_capwap_message_element(ptr noundef %0, ptr noundef %1, i32 noundef %2, ptr noundef %3) #0 {
  %5 = alloca ptr, align 8
  %6 = alloca ptr, align 8
  %7 = alloca i32, align 4
  %8 = alloca ptr, align 8
  %9 = alloca i32, align 4
  %10 = alloca i32, align 4
  %11 = alloca ptr, align 8
  %12 = alloca ptr, align 8
  store ptr %0, ptr %5, align 8
  store ptr %1, ptr %6, align 8
  store i32 %2, ptr %7, align 4
  store ptr %3, ptr %8, align 8
  call void @llvm.lifetime.start.p0(i64 4, ptr %9) #3
  store i32 0, ptr %9, align 4
  call void @llvm.lifetime.start.p0(i64 4, ptr %10) #3
  call void @llvm.lifetime.start.p0(i64 8, ptr %11) #3
  call void @llvm.lifetime.start.p0(i64 8, ptr %12) #3
  %13 = load ptr, ptr %6, align 8
  %14 = load i32, ptr @hf_capwap_message_element, align 4
  %15 = load ptr, ptr %5, align 8
  %16 = load i32, ptr %7, align 4
  %17 = load ptr, ptr %5, align 8
  %18 = call i32 @tvb_reported_length(ptr noundef %17)
  %19 = load i32, ptr %7, align 4
  %20 = sub i32 %18, %19
  %21 = call ptr @proto_tree_add_item(ptr noundef %13, i32 noundef %14, ptr noundef %15, i32 noundef %16, i32 noundef %20, i32 noundef 0)
  store ptr %21, ptr %11, align 8
  %22 = load ptr, ptr %11, align 8
  %23 = load i32, ptr @ett_capwap_message_element, align 4
  %24 = call ptr @proto_item_add_subtree(ptr noundef %22, i32 noundef %23)
  store ptr %24, ptr %12, align 8
  %25 = load ptr, ptr %5, align 8
  %26 = call i32 @tvb_reported_length(ptr noundef %25)
  store i32 %26, ptr %10, align 4
  br label %27

27:                                               ; preds = %33, %4
  %28 = load i32, ptr %7, align 4
  %29 = load i32, ptr %9, align 4
  %30 = add i32 %28, %29
  %31 = load i32, ptr %10, align 4
  %32 = icmp ult i32 %30, %31
  br i1 %32, label %33, label %43

33:                                               ; preds = %27
  %34 = load ptr, ptr %5, align 8
  %35 = load ptr, ptr %12, align 8
  %36 = load i32, ptr %7, align 4
  %37 = load i32, ptr %9, align 4
  %38 = add i32 %36, %37
  %39 = load ptr, ptr %8, align 8
  %40 = call i32 @dissect_capwap_message_element_type(ptr noundef %34, ptr noundef %35, i32 noundef %38, ptr noundef %39)
  %41 = load i32, ptr %9, align 4
  %42 = add i32 %41, %40
  store i32 %42, ptr %9, align 4
  br label %27, !llvm.loop !8

43:                                               ; preds = %27
  %44 = load i32, ptr %9, align 4
  call void @llvm.lifetime.end.p0(i64 8, ptr %12) #3
  call void @llvm.lifetime.end.p0(i64 8, ptr %11) #3
  call void @llvm.lifetime.end.p0(i64 4, ptr %10) #3
  call void @llvm.lifetime.end.p0(i64 4, ptr %9) #3
  ret i32 %44
}

; Function Attrs: null_pointer_is_valid sspstrong uwtable
define internal i32 @dissect_capwap_control(ptr noundef %0, ptr noundef %1, ptr noundef %2, ptr noundef %3) #0 {
  %5 = alloca i32, align 4
  %6 = alloca ptr, align 8
  %7 = alloca ptr, align 8
  %8 = alloca ptr, align 8
  %9 = alloca ptr, align 8
  %10 = alloca ptr, align 8
  %11 = alloca ptr, align 8
  %12 = alloca i32, align 4
  %13 = alloca ptr, align 8
  %14 = alloca i8, align 1
  %15 = alloca i8, align 1
  %16 = alloca i8, align 1
  %17 = alloca i8, align 1
  %18 = alloca i8, align 1
  %19 = alloca i32, align 4
  %20 = alloca i32, align 4
  %21 = alloca ptr, align 8
  %22 = alloca i8, align 1
  %23 = alloca i32, align 4
  %24 = alloca i32, align 4
  store ptr %0, ptr %6, align 8
  store ptr %1, ptr %7, align 8
  store ptr %2, ptr %8, align 8
  store ptr %3, ptr %9, align 8
  call void @llvm.lifetime.start.p0(i64 8, ptr %10) #3
  call void @llvm.lifetime.start.p0(i64 8, ptr %11) #3
  call void @llvm.lifetime.start.p0(i64 4, ptr %12) #3
  store i32 0, ptr %12, align 4
  call void @llvm.lifetime.start.p0(i64 8, ptr %13) #3
  store ptr null, ptr %13, align 8
  call void @llvm.lifetime.start.p0(i64 1, ptr %14) #3
  call void @llvm.lifetime.start.p0(i64 1, ptr %15) #3
  call void @llvm.lifetime.start.p0(i64 1, ptr %16) #3
  call void @llvm.lifetime.start.p0(i64 1, ptr %17) #3
  call void @llvm.lifetime.start.p0(i64 1, ptr %18) #3
  call void @llvm.lifetime.start.p0(i64 4, ptr %19) #3
  call void @llvm.lifetime.start.p0(i64 4, ptr %20) #3
  call void @llvm.lifetime.start.p0(i64 8, ptr %21) #3
  store ptr null, ptr %21, align 8
  call void @llvm.lifetime.start.p0(i64 1, ptr %22) #3
  %25 = load ptr, ptr %7, align 8
  %26 = getelementptr inbounds nuw %struct._packet_info, ptr %25, i32 0, i32 1
  %27 = load ptr, ptr %26, align 8
  call void @col_set_str(ptr noundef %27, i32 noundef 35, ptr noundef @.str.1082)
  %28 = load ptr, ptr %7, align 8
  %29 = getelementptr inbounds nuw %struct._packet_info, ptr %28, i32 0, i32 1
  %30 = load ptr, ptr %29, align 8
  call void @col_set_str(ptr noundef %30, i32 noundef 25, ptr noundef @.str.1082)
  %31 = load ptr, ptr %8, align 8
  %32 = load i32, ptr @proto_capwap_control, align 4
  %33 = load ptr, ptr %6, align 8
  %34 = call ptr @proto_tree_add_item(ptr noundef %31, i32 noundef %32, ptr noundef %33, i32 noundef 0, i32 noundef -1, i32 noundef 0)
  store ptr %34, ptr %10, align 8
  %35 = load ptr, ptr %10, align 8
  %36 = load i32, ptr @ett_capwap_control, align 4
  %37 = call ptr @proto_item_add_subtree(ptr noundef %35, i32 noundef %36)
  store ptr %37, ptr %11, align 8
  %38 = load ptr, ptr %6, align 8
  %39 = load ptr, ptr %11, align 8
  %40 = load i32, ptr %12, align 4
  %41 = call i32 @dissect_capwap_preamble(ptr noundef %38, ptr noundef %39, i32 noundef %40, ptr noundef %14)
  %42 = load i32, ptr %12, align 4
  %43 = add i32 %42, %41
  store i32 %43, ptr %12, align 4
  %44 = load i8, ptr %14, align 1
  %45 = zext i8 %44 to i32
  %46 = icmp eq i32 %45, 1
  br i1 %46, label %47, label %57

47:                                               ; preds = %4
  %48 = load ptr, ptr %6, align 8
  %49 = load i32, ptr %12, align 4
  %50 = call ptr @tvb_new_subset_remaining(ptr noundef %48, i32 noundef %49)
  store ptr %50, ptr %13, align 8
  %51 = load ptr, ptr @dtls_handle, align 8
  %52 = load ptr, ptr %13, align 8
  %53 = load ptr, ptr %7, align 8
  %54 = load ptr, ptr %8, align 8
  %55 = call i32 @call_dissector(ptr noundef %51, ptr noundef %52, ptr noundef %53, ptr noundef %54)
  %56 = load i32, ptr %12, align 4
  store i32 %56, ptr %5, align 4
  store i32 1, ptr %23, align 4
  br label %158

57:                                               ; preds = %4
  %58 = load ptr, ptr %6, align 8
  %59 = load ptr, ptr %11, align 8
  %60 = load i32, ptr %12, align 4
  %61 = load ptr, ptr %7, align 8
  %62 = call i32 @dissect_capwap_header(ptr noundef %58, ptr noundef %59, i32 noundef %60, ptr noundef %61, ptr noundef %15, ptr noundef %16, ptr noundef %17, ptr noundef %18, ptr noundef %19, ptr noundef %20)
  %63 = load i32, ptr %12, align 4
  %64 = add i32 %63, %62
  store i32 %64, ptr %12, align 4
  %65 = load ptr, ptr %7, align 8
  %66 = getelementptr inbounds nuw %struct._packet_info, ptr %65, i32 0, i32 20
  %67 = load i8, ptr %66, align 8, !range !6, !noundef !7
  %68 = trunc i8 %67 to i1
  %69 = zext i1 %68 to i8
  store i8 %69, ptr %22, align 1
  %70 = load i8, ptr @global_capwap_reassemble, align 1, !range !6, !noundef !7
  %71 = trunc i8 %70 to i1
  br i1 %71, label %72, label %136

72:                                               ; preds = %57
  %73 = load i8, ptr %17, align 1, !range !6, !noundef !7
  %74 = trunc i8 %73 to i1
  br i1 %74, label %75, label %136

75:                                               ; preds = %72
  call void @llvm.lifetime.start.p0(i64 4, ptr %24) #3
  %76 = load ptr, ptr %6, align 8
  %77 = load i32, ptr %12, align 4
  %78 = call i32 @tvb_reported_length_remaining(ptr noundef %76, i32 noundef %77)
  store i32 %78, ptr %24, align 4
  %79 = load i32, ptr %24, align 4
  %80 = icmp sle i32 %79, 0
  br i1 %80, label %81, label %83

81:                                               ; preds = %75
  %82 = load i32, ptr %12, align 4
  store i32 %82, ptr %5, align 4
  store i32 1, ptr %23, align 4
  br label %133

83:                                               ; preds = %75
  %84 = load ptr, ptr %7, align 8
  %85 = getelementptr inbounds nuw %struct._packet_info, ptr %84, i32 0, i32 20
  store i8 1, ptr %85, align 8
  %86 = load ptr, ptr %6, align 8
  %87 = load i32, ptr %12, align 4
  %88 = load ptr, ptr %7, align 8
  %89 = load i32, ptr %19, align 4
  %90 = load i32, ptr %20, align 4
  %91 = load i32, ptr %24, align 4
  %92 = load i8, ptr %18, align 1, !range !6, !noundef !7
  %93 = trunc i8 %92 to i1
  %94 = call ptr @fragment_add_check(ptr noundef @capwap_reassembly_table, ptr noundef %86, i32 noundef %87, ptr noundef %88, i32 noundef %89, ptr noundef null, i32 noundef %90, i32 noundef %91, i1 noundef zeroext %93)
  store ptr %94, ptr %21, align 8
  %95 = load ptr, ptr %6, align 8
  %96 = load i32, ptr %12, align 4
  %97 = load ptr, ptr %7, align 8
  %98 = load ptr, ptr %21, align 8
  %99 = load ptr, ptr %8, align 8
  %100 = call ptr @process_reassembled_data(ptr noundef %95, i32 noundef %96, ptr noundef %97, ptr noundef @.str.1083, ptr noundef %98, ptr noundef @capwap_frag_items, ptr noundef null, ptr noundef %99)
  store ptr %100, ptr %13, align 8
  %101 = load ptr, ptr %13, align 8
  %102 = icmp eq ptr %101, null
  br i1 %102, label %103, label %116

103:                                              ; preds = %83
  %104 = load ptr, ptr %6, align 8
  %105 = load i32, ptr %12, align 4
  %106 = call ptr @tvb_new_subset_remaining(ptr noundef %104, i32 noundef %105)
  store ptr %106, ptr %13, align 8
  %107 = load ptr, ptr %13, align 8
  %108 = load ptr, ptr %7, align 8
  %109 = load ptr, ptr %8, align 8
  %110 = call i32 @call_data_dissector(ptr noundef %107, ptr noundef %108, ptr noundef %109)
  %111 = load ptr, ptr %7, align 8
  %112 = getelementptr inbounds nuw %struct._packet_info, ptr %111, i32 0, i32 1
  %113 = load ptr, ptr %112, align 8
  %114 = load i32, ptr %19, align 4
  %115 = load i32, ptr %20, align 4
  call void (ptr, i32, ptr, ...) @col_append_fstr(ptr noundef %113, i32 noundef 25, ptr noundef @.str.1084, i32 noundef %114, i32 noundef %115)
  br label %132

116:                                              ; preds = %83
  %117 = load ptr, ptr %13, align 8
  %118 = load ptr, ptr %11, align 8
  %119 = load ptr, ptr %7, align 8
  %120 = call i32 @dissect_capwap_control_header(ptr noundef %117, ptr noundef %118, i32 noundef 0, ptr noundef %119)
  store i32 %120, ptr %12, align 4
  %121 = load ptr, ptr %13, align 8
  %122 = load ptr, ptr %11, align 8
  %123 = load i32, ptr %12, align 4
  %124 = load ptr, ptr %7, align 8
  %125 = call i32 @dissect_capwap_message_element(ptr noundef %121, ptr noundef %122, i32 noundef %123, ptr noundef %124)
  %126 = load i32, ptr %12, align 4
  %127 = add i32 %126, %125
  store i32 %127, ptr %12, align 4
  %128 = load ptr, ptr %7, align 8
  %129 = getelementptr inbounds nuw %struct._packet_info, ptr %128, i32 0, i32 1
  %130 = load ptr, ptr %129, align 8
  %131 = load i32, ptr %19, align 4
  call void (ptr, i32, ptr, ...) @col_append_fstr(ptr noundef %130, i32 noundef 25, ptr noundef @.str.1085, i32 noundef %131)
  br label %132

132:                                              ; preds = %116, %103
  store i32 0, ptr %23, align 4
  br label %133

133:                                              ; preds = %132, %81
  call void @llvm.lifetime.end.p0(i64 4, ptr %24) #3
  %134 = load i32, ptr %23, align 4
  switch i32 %134, label %158 [
    i32 0, label %135
  ]

135:                                              ; preds = %133
  br label %151

136:                                              ; preds = %72, %57
  %137 = load ptr, ptr %6, align 8
  %138 = load ptr, ptr %11, align 8
  %139 = load i32, ptr %12, align 4
  %140 = load ptr, ptr %7, align 8
  %141 = call i32 @dissect_capwap_control_header(ptr noundef %137, ptr noundef %138, i32 noundef %139, ptr noundef %140)
  %142 = load i32, ptr %12, align 4
  %143 = add i32 %142, %141
  store i32 %143, ptr %12, align 4
  %144 = load ptr, ptr %6, align 8
  %145 = load ptr, ptr %11, align 8
  %146 = load i32, ptr %12, align 4
  %147 = load ptr, ptr %7, align 8
  %148 = call i32 @dissect_capwap_message_element(ptr noundef %144, ptr noundef %145, i32 noundef %146, ptr noundef %147)
  %149 = load i32, ptr %12, align 4
  %150 = add i32 %149, %148
  store i32 %150, ptr %12, align 4
  br label %151

151:                                              ; preds = %136, %135
  %152 = load i8, ptr %22, align 1, !range !6, !noundef !7
  %153 = trunc i8 %152 to i1
  %154 = load ptr, ptr %7, align 8
  %155 = getelementptr inbounds nuw %struct._packet_info, ptr %154, i32 0, i32 20
  %156 = zext i1 %153 to i8
  store i8 %156, ptr %155, align 8
  %157 = load i32, ptr %12, align 4
  store i32 %157, ptr %5, align 4
  store i32 1, ptr %23, align 4
  br label %158

158:                                              ; preds = %151, %133, %47
  call void @llvm.lifetime.end.p0(i64 1, ptr %22) #3
  call void @llvm.lifetime.end.p0(i64 8, ptr %21) #3
  call void @llvm.lifetime.end.p0(i64 4, ptr %20) #3
  call void @llvm.lifetime.end.p0(i64 4, ptr %19) #3
  call void @llvm.lifetime.end.p0(i64 1, ptr %18) #3
  call void @llvm.lifetime.end.p0(i64 1, ptr %17) #3
  call void @llvm.lifetime.end.p0(i64 1, ptr %16) #3
  call void @llvm.lifetime.end.p0(i64 1, ptr %15) #3
  call void @llvm.lifetime.end.p0(i64 1, ptr %14) #3
  call void @llvm.lifetime.end.p0(i64 8, ptr %13) #3
  call void @llvm.lifetime.end.p0(i64 4, ptr %12) #3
  call void @llvm.lifetime.end.p0(i64 8, ptr %11) #3
  call void @llvm.lifetime.end.p0(i64 8, ptr %10) #3
  %159 = load i32, ptr %5, align 4
  ret i32 %159
}