; Function Attrs: null_pointer_is_valid sspstrong uwtable
define internal i32 @dissect_capwap_control(ptr noundef %0, ptr noundef %1, ptr noundef %2, ptr readnone captures(none) %3) #0 {
  %5 = alloca i8, align 1
  %6 = alloca i8, align 1
  %7 = alloca i8, align 1
  %8 = alloca i8, align 1
  %9 = alloca i8, align 1
  %10 = alloca i32, align 4
  %11 = alloca i32, align 4
  call void @llvm.lifetime.start.p0(i64 1, ptr nonnull %5) #3
  call void @llvm.lifetime.start.p0(i64 1, ptr nonnull %6) #3
  call void @llvm.lifetime.start.p0(i64 1, ptr nonnull %7) #3
  call void @llvm.lifetime.start.p0(i64 1, ptr nonnull %8) #3
  call void @llvm.lifetime.start.p0(i64 1, ptr nonnull %9) #3
  call void @llvm.lifetime.start.p0(i64 4, ptr nonnull %10) #3
  call void @llvm.lifetime.start.p0(i64 4, ptr nonnull %11) #3
  %12 = getelementptr inbounds nuw i8, ptr %1, i64 8
  %13 = load ptr, ptr %12, align 8
  tail call void @col_set_str(ptr noundef %13, i32 noundef 35, ptr noundef nonnull @.str.1082)
  %14 = load ptr, ptr %12, align 8
  tail call void @col_set_str(ptr noundef %14, i32 noundef 25, ptr noundef nonnull @.str.1082)
  %15 = load i32, ptr @proto_capwap_control, align 4
  %16 = tail call ptr @proto_tree_add_item(ptr noundef %2, i32 noundef %15, ptr noundef %0, i32 noundef 0, i32 noundef -1, i32 noundef 0)
  %17 = load i32, ptr @ett_capwap_control, align 4
  %18 = tail call ptr @proto_item_add_subtree(ptr noundef %16, i32 noundef %17)
  %19 = call fastcc i32 @dissect_capwap_preamble(ptr noundef %0, ptr noundef %18, ptr noundef nonnull %5)
  %20 = load i8, ptr %5, align 1
  %21 = icmp eq i8 %20, 1
  br i1 %21, label %22, label %26

22:                                               ; preds = %4
  %23 = tail call ptr @tvb_new_subset_remaining(ptr noundef %0, i32 noundef %19)
  %24 = load ptr, ptr @dtls_handle, align 8
  %25 = tail call i32 @call_dissector(ptr noundef %24, ptr noundef %23, ptr noundef %1, ptr noundef %2)
  br label %.thread76

26:                                               ; preds = %4
  %27 = call fastcc i32 @dissect_capwap_header(ptr noundef %0, ptr noundef %18, i32 noundef %19, ptr noundef %1, ptr noundef nonnull %6, ptr noundef nonnull %7, ptr noundef nonnull %8, ptr noundef nonnull %9, ptr noundef nonnull %10, ptr noundef nonnull %11)
  %28 = add nsw i32 %27, %19
  %29 = getelementptr inbounds nuw i8, ptr %1, i64 272
  %30 = load i8, ptr %29, align 8, !range !6, !noundef !7
  %31 = load i8, ptr @global_capwap_reassemble, align 1, !range !6, !noundef !7
  %32 = trunc nuw i8 %31 to i1
  br i1 %32, label %33, label %66

33:                                               ; preds = %26
  %34 = load i8, ptr %8, align 1, !range !6, !noundef !7
  %35 = trunc nuw i8 %34 to i1
  br i1 %35, label %36, label %66

36:                                               ; preds = %33
  %37 = tail call i32 @tvb_reported_length_remaining(ptr noundef %0, i32 noundef %28)
  %38 = icmp sgt i32 %37, 0
  br i1 %38, label %39, label %.thread76

39:                                               ; preds = %36
  store i8 1, ptr %29, align 8
  %40 = load i32, ptr %10, align 4
  %41 = load i32, ptr %11, align 4
  %42 = load i8, ptr %9, align 1, !range !6, !noundef !7
  %43 = trunc nuw i8 %42 to i1
  %44 = tail call ptr @fragment_add_check(ptr noundef nonnull @capwap_reassembly_table, ptr noundef %0, i32 noundef %28, ptr noundef %1, i32 noundef %40, ptr noundef null, i32 noundef %41, i32 noundef %37, i1 noundef zeroext %43)
  %45 = tail call ptr @process_reassembled_data(ptr noundef %0, i32 noundef %28, ptr noundef %1, ptr noundef nonnull @.str.1083, ptr noundef %44, ptr noundef nonnull @capwap_frag_items, ptr noundef null, ptr noundef %2)
  %46 = icmp eq ptr %45, null
  br i1 %46, label %.thread, label %50

.thread:                                          ; preds = %39
  %47 = tail call ptr @tvb_new_subset_remaining(ptr noundef %0, i32 noundef %28)
  %48 = tail call i32 @call_data_dissector(ptr noundef %47, ptr noundef %1, ptr noundef %2)
  %49 = load ptr, ptr %12, align 8
  tail call void (ptr, i32, ptr, ...) @col_append_fstr(ptr noundef %49, i32 noundef 25, ptr noundef nonnull @.str.1084, i32 noundef %40, i32 noundef %41)
  br label %82

50:                                               ; preds = %39
  tail call fastcc void @dissect_capwap_control_header(ptr noundef nonnull %45, ptr noundef %18, i32 noundef 0, ptr noundef %1)
  %51 = load i32, ptr @hf_capwap_message_element, align 4
  %52 = tail call i32 @tvb_reported_length(ptr noundef nonnull %45)
  %53 = add i32 %52, -8
  %54 = tail call ptr @proto_tree_add_item(ptr noundef %18, i32 noundef %51, ptr noundef nonnull %45, i32 noundef 8, i32 noundef %53, i32 noundef 0)
  %55 = load i32, ptr @ett_capwap_message_element, align 4
  %56 = tail call ptr @proto_item_add_subtree(ptr noundef %54, i32 noundef %55)
  %57 = tail call i32 @tvb_reported_length(ptr noundef nonnull %45)
  %58 = icmp ugt i32 %57, 8
  br i1 %58, label %.lr.ph.i, label %.loopexit

.lr.ph.i:                                         ; preds = %50, %.lr.ph.i
  %.017.i = phi i32 [ %61, %.lr.ph.i ], [ 0, %50 ]
  %59 = add i32 %.017.i, 8
  %60 = tail call fastcc i32 @dissect_capwap_message_element_type(ptr noundef nonnull %45, ptr noundef %56, i32 noundef %59, ptr noundef %1)
  %61 = add i32 %60, %.017.i
  %62 = add i32 %61, 8
  %63 = icmp ult i32 %62, %57
  br i1 %63, label %.lr.ph.i, label %.loopexit.loopexit, !llvm.loop !8

.loopexit.loopexit:                               ; preds = %.lr.ph.i
  %64 = add i32 %61, 8
  br label %.loopexit

.loopexit:                                        ; preds = %50, %.loopexit.loopexit
  %.0.lcssa.i = phi i32 [ %64, %.loopexit.loopexit ], [ 8, %50 ]
  %65 = load ptr, ptr %12, align 8
  tail call void (ptr, i32, ptr, ...) @col_append_fstr(ptr noundef %65, i32 noundef 25, ptr noundef nonnull @.str.1085, i32 noundef %40)
  br label %82

66:                                               ; preds = %33, %26
  tail call fastcc void @dissect_capwap_control_header(ptr noundef %0, ptr noundef %18, i32 noundef %28, ptr noundef %1)
  %67 = add nuw nsw i32 %28, 8
  %68 = load i32, ptr @hf_capwap_message_element, align 4
  %69 = tail call i32 @tvb_reported_length(ptr noundef %0)
  %70 = sub i32 %69, %67
  %71 = tail call ptr @proto_tree_add_item(ptr noundef %18, i32 noundef %68, ptr noundef %0, i32 noundef range(i32 8, 1032) %67, i32 noundef %70, i32 noundef 0)
  %72 = load i32, ptr @ett_capwap_message_element, align 4
  %73 = tail call ptr @proto_item_add_subtree(ptr noundef %71, i32 noundef %72)
  %74 = tail call i32 @tvb_reported_length(ptr noundef %0)
  %75 = icmp ult i32 %67, %74
  br i1 %75, label %.lr.ph.i71, label %dissect_capwap_message_element.exit73

.lr.ph.i71:                                       ; preds = %66, %.lr.ph.i71
  %.017.i72 = phi i32 [ %78, %.lr.ph.i71 ], [ 0, %66 ]
  %76 = add i32 %.017.i72, %67
  %77 = tail call fastcc i32 @dissect_capwap_message_element_type(ptr noundef %0, ptr noundef %73, i32 noundef %76, ptr noundef %1)
  %78 = add i32 %77, %.017.i72
  %79 = add i32 %78, %67
  %80 = icmp ult i32 %79, %74
  br i1 %80, label %.lr.ph.i71, label %dissect_capwap_message_element.exit73, !llvm.loop !8

dissect_capwap_message_element.exit73:            ; preds = %.lr.ph.i71, %66
  %.0.lcssa.i70 = phi i32 [ 0, %66 ], [ %78, %.lr.ph.i71 ]
  %81 = add i32 %.0.lcssa.i70, %67
  br label %82

82:                                               ; preds = %.loopexit, %.thread, %dissect_capwap_message_element.exit73
  %.2 = phi i32 [ %.0.lcssa.i, %.loopexit ], [ %81, %dissect_capwap_message_element.exit73 ], [ %28, %.thread ]
  store i8 %30, ptr %29, align 8
  br label %.thread76

.thread76:                                        ; preds = %36, %82, %22
  %.0 = phi i32 [ %19, %22 ], [ %.2, %82 ], [ %28, %36 ]
  call void @llvm.lifetime.end.p0(i64 4, ptr nonnull %11) #3
  call void @llvm.lifetime.end.p0(i64 4, ptr nonnull %10) #3
  call void @llvm.lifetime.end.p0(i64 1, ptr nonnull %9) #3
  call void @llvm.lifetime.end.p0(i64 1, ptr nonnull %8) #3
  call void @llvm.lifetime.end.p0(i64 1, ptr nonnull %7) #3
  call void @llvm.lifetime.end.p0(i64 1, ptr nonnull %6) #3
  call void @llvm.lifetime.end.p0(i64 1, ptr nonnull %5) #3
  ret i32 %.0
}